; Function Attrs: nounwind uwtable
define internal noundef ptr @test_from_spec_metatype_inheritance(ptr readnone captures(none) %0, ptr readnone captures(none) %1) #0 {
  %3 = tail call ptr @PyType_FromSpecWithBases(ptr noundef nonnull @MinimalMetaclass_spec, ptr noundef nonnull @PyType_Type) #8
  %4 = icmp eq ptr %3, null
  br i1 %4, label %Py_XDECREF.exit37, label %5

5:                                                ; preds = %2
  %6 = tail call ptr (ptr, ptr, ...) @PyObject_CallFunction(ptr noundef nonnull %3, ptr noundef nonnull @.str.50, ptr noundef nonnull @.str.51) #8
  %7 = icmp eq ptr %6, null
  br i1 %7, label %32, label %8

8:                                                ; preds = %5
  %9 = getelementptr inbounds nuw i8, ptr %6, i64 32
  %10 = load i64, ptr %9, align 8, !tbaa !45
  %11 = trunc i64 %10 to i32
  store i32 %11, ptr getelementptr inbounds nuw (i8, ptr @MinimalType_spec, i64 8), align 8, !tbaa !26
  %12 = tail call ptr @PyType_FromSpecWithBases(ptr noundef nonnull @MinimalType_spec, ptr noundef nonnull %6) #8
  %13 = icmp eq ptr %12, null
  br i1 %13, label %32, label %14

14:                                               ; preds = %8
  %15 = getelementptr i8, ptr %12, i64 8
  %.val = load ptr, ptr %15, align 8, !tbaa !9
  %.not = icmp eq ptr %.val, %3
  br i1 %.not, label %18, label %16

16:                                               ; preds = %14
  %17 = load ptr, ptr @PyExc_AssertionError, align 8, !tbaa !23
  tail call void @PyErr_SetString(ptr noundef %17, ptr noundef nonnull @.str.52) #8
  br label %32

18:                                               ; preds = %14
  %19 = tail call ptr (ptr, ptr, ptr, ...) @PyObject_CallMethod(ptr noundef nonnull %6, ptr noundef nonnull @.str.53, ptr noundef nonnull @.str.54) #8
  %.not28 = icmp eq ptr %19, null
  br i1 %.not28, label %32, label %20

20:                                               ; preds = %18
  %21 = tail call i32 @PySequence_Contains(ptr noundef nonnull %19, ptr noundef nonnull %12) #8
  %22 = icmp slt i32 %21, 0
  br i1 %22, label %32, label %23

23:                                               ; preds = %20
  %24 = icmp eq i32 %21, 0
  br i1 %24, label %25, label %27

25:                                               ; preds = %23
  %26 = load ptr, ptr @PyExc_AssertionError, align 8, !tbaa !23
  tail call void @PyErr_SetString(ptr noundef %26, ptr noundef nonnull @.str.55) #8
  br label %32

27:                                               ; preds = %23
  %28 = load i32, ptr @_Py_NoneStruct, align 8, !tbaa !8
  %29 = icmp slt i32 %28, 0
  br i1 %29, label %32, label %30

30:                                               ; preds = %27
  %31 = add nuw i32 %28, 1
  store i32 %31, ptr @_Py_NoneStruct, align 8, !tbaa !8
  br label %32

32:                                               ; preds = %30, %27, %20, %18, %8, %5, %25, %16
  %.019.ph = phi ptr [ %12, %30 ], [ %12, %27 ], [ %12, %18 ], [ %12, %25 ], [ %12, %20 ], [ %12, %16 ], [ null, %8 ], [ null, %5 ]
  %.018.ph = phi ptr [ %19, %30 ], [ %19, %27 ], [ null, %18 ], [ %19, %25 ], [ %19, %20 ], [ null, %16 ], [ null, %8 ], [ null, %5 ]
  %.0.ph = phi ptr [ @_Py_NoneStruct, %30 ], [ @_Py_NoneStruct, %27 ], [ null, %18 ], [ null, %25 ], [ null, %20 ], [ null, %16 ], [ null, %8 ], [ null, %5 ]
  %33 = load i32, ptr %3, align 8, !tbaa !8
  %.not.i.i = icmp sgt i32 %33, -1
  br i1 %.not.i.i, label %34, label %Py_XDECREF.exit

34:                                               ; preds = %32
  %35 = add nsw i32 %33, -1
  store i32 %35, ptr %3, align 8, !tbaa !8
  %36 = icmp eq i32 %35, 0
  br i1 %36, label %37, label %Py_XDECREF.exit

37:                                               ; preds = %34
  tail call void @_Py_Dealloc(ptr noundef nonnull %3) #8
  br label %Py_XDECREF.exit

Py_XDECREF.exit:                                  ; preds = %32, %34, %37
  br i1 %7, label %Py_XDECREF.exit31, label %38

38:                                               ; preds = %Py_XDECREF.exit
  %39 = load i32, ptr %6, align 8, !tbaa !8
  %.not.i.i30 = icmp sgt i32 %39, -1
  br i1 %.not.i.i30, label %40, label %Py_XDECREF.exit31

40:                                               ; preds = %38
  %41 = add nsw i32 %39, -1
  store i32 %41, ptr %6, align 8, !tbaa !8
  %42 = icmp eq i32 %41, 0
  br i1 %42, label %43, label %Py_XDECREF.exit31

43:                                               ; preds = %40
  tail call void @_Py_Dealloc(ptr noundef nonnull %6) #8
  br label %Py_XDECREF.exit31

Py_XDECREF.exit31:                                ; preds = %Py_XDECREF.exit, %38, %40, %43
  %.not.i32 = icmp eq ptr %.019.ph, null
  br i1 %.not.i32, label %Py_XDECREF.exit34, label %44

44:                                               ; preds = %Py_XDECREF.exit31
  %45 = load i32, ptr %.019.ph, align 8, !tbaa !8
  %.not.i.i33 = icmp sgt i32 %45, -1
  br i1 %.not.i.i33, label %46, label %Py_XDECREF.exit34

46:                                               ; preds = %44
  %47 = add nsw i32 %45, -1
  store i32 %47, ptr %.019.ph, align 8, !tbaa !8
  %48 = icmp eq i32 %47, 0
  br i1 %48, label %49, label %Py_XDECREF.exit34

49:                                               ; preds = %46
  tail call void @_Py_Dealloc(ptr noundef nonnull %.019.ph) #8
  br label %Py_XDECREF.exit34

Py_XDECREF.exit34:                                ; preds = %Py_XDECREF.exit31, %44, %46, %49
  %.not.i35 = icmp eq ptr %.018.ph, null
  br i1 %.not.i35, label %Py_XDECREF.exit37, label %50

50:                                               ; preds = %Py_XDECREF.exit34
  %51 = load i32, ptr %.018.ph, align 8, !tbaa !8
  %.not.i.i36 = icmp sgt i32 %51, -1
  br i1 %.not.i.i36, label %52, label %Py_XDECREF.exit37

52:                                               ; preds = %50
  %53 = add nsw i32 %51, -1
  store i32 %53, ptr %.018.ph, align 8, !tbaa !8
  %54 = icmp eq i32 %53, 0
  br i1 %54, label %55, label %Py_XDECREF.exit37

55:                                               ; preds = %52
  tail call void @_Py_Dealloc(ptr noundef nonnull %.018.ph) #8
  br label %Py_XDECREF.exit37

Py_XDECREF.exit37:                                ; preds = %2, %Py_XDECREF.exit34, %50, %52, %55
  %.049556367 = phi ptr [ %.0.ph, %Py_XDECREF.exit34 ], [ %.0.ph, %50 ], [ %.0.ph, %52 ], [ %.0.ph, %55 ], [ null, %2 ]
  ret ptr %.049556367
}